target datalayout = "e-m:e-p270:32:32-p271:32:32-p272:64:64-i64:64-i128:128-f80:128-n8:16:32:64-S128"
target triple = "x86_64-pc-linux-gnu"

%struct.anon = type { ptr, ptr, i32, i32, i32, i32, ptr, i64, i64, i64, i32, ptr, i32, i32, i32, i32, i32, ptr, i32, i32, ptr, ptr, i32, i64, i64, ptr, ptr, ptr, ptr, i32, ptr, ptr, ptr, i32, i32, ptr, i64, i64, i32, i32, ptr, ptr, i32, ptr }
%struct.Screen = type { ptr, ptr, i64, i32, i32, i32, i32, i32, ptr, i32, ptr, ptr, i64, i64, i64, i32, i32, i32, i32, i64 }

; Function Attrs: nounwind uwtable
define i64 @Java_sun_awt_X11_XlibWrapper_DisplayHeightMM(ptr noundef %0, ptr noundef %1, i64 noundef %2, i64 noundef %3) #0 {
  %5 = alloca ptr, align 8
  %6 = alloca ptr, align 8
  %7 = alloca i64, align 8
  %8 = alloca i64, align 8
  store ptr %0, ptr %5, align 8
  store ptr %1, ptr %6, align 8
  store i64 %2, ptr %7, align 8
  store i64 %3, ptr %8, align 8
  %9 = load i64, ptr %7, align 8
  %10 = inttoptr i64 %9 to ptr
  %11 = getelementptr inbounds %struct.anon, ptr %10, i32 0, i32 35
  %12 = load ptr, ptr %11, align 8
  %13 = load i64, ptr %8, align 8
  %14 = getelementptr inbounds %struct.Screen, ptr %12, i64 %13
  %15 = getelementptr inbounds %struct.Screen, ptr %14, i32 0, i32 6
  %16 = load i32, ptr %15, align 4
  %17 = sext i32 %16 to i64
  ret i64 %17
}