; Function Attrs: mustprogress nofree norecurse nosync nounwind willreturn memory(read, inaccessiblemem: none) uwtable
define range(i64 -2147483648, 2147483648) i64 @Java_sun_awt_X11_XlibWrapper_DisplayHeightMM(ptr nocapture noundef readnone %0, ptr nocapture noundef readnone %1, i64 noundef %2, i64 noundef %3) local_unnamed_addr #5 {
  %5 = inttoptr i64 %2 to ptr
  %6 = getelementptr inbounds i8, ptr %5, i64 232
  %7 = load ptr, ptr %6, align 8
  %8 = getelementptr inbounds %struct.Screen, ptr %7, i64 %3, i32 6
  %9 = load i32, ptr %8, align 4
  %10 = sext i32 %9 to i64
  ret i64 %10
}